Certificate:
    Data:
        Version: 3 (0x2)
        Serial Number: 7 (0x7)
    Signature Algorithm: md5WithRSAEncryption
        Issuer: C=IE, ST=Dublin, L=Dublin, O=memespace.net, OU=Axiomatic Secrets, CN=root.vpn.sh.s/emailAddress=sebastian_hagen@memespace.net
        Validity
            Not Before: Apr  7 01:11:11 2017 GMT
            Not After : Jun 24 01:11:11 2028 GMT
        Subject: C=US, ST=CA, O=memespace.net, OU=Ocean VPN, CN=ika.vpn-o.sh.s/emailAddress=sebastian_hagen@memespace.net
        Subject Public Key Info:
            Public Key Algorithm: rsaEncryption
                Public-Key: (2048 bit)
                Modulus:
                    00:c3:22:fe:96:a1:ff:5b:86:62:67:38:45:d4:ca:
                    3c:fc:dc:fb:97:2d:2c:a3:a3:29:4a:fc:72:d7:e4:
                    e7:f4:71:de:e0:92:b0:0b:85:52:96:3c:80:2b:32:
                    93:36:06:94:2e:dc:e1:b2:d6:b5:31:bd:b7:fd:79:
                    4e:cf:23:68:c2:fe:d3:1c:1d:ed:0b:89:60:ac:03:
                    46:66:8e:87:c0:e8:9c:2b:04:d4:72:d6:6e:5d:45:
                    0c:15:f4:67:c0:dc:2d:2e:b4:4e:01:6c:ed:be:7a:
                    1d:b7:55:43:4b:90:90:f9:aa:7d:15:f7:df:40:6c:
                    cb:8d:42:2e:7e:02:07:6a:50:c8:70:d5:c9:6e:9c:
                    d7:3d:ef:98:b3:fd:13:07:3b:06:25:cb:f4:72:e7:
                    5a:a5:0c:a4:7f:a0:1d:22:6b:fd:4b:86:67:e7:31:
                    fe:93:8e:e1:c8:0f:ae:52:ee:1e:75:c4:b5:d3:8e:
                    94:f7:97:43:72:3d:e4:01:50:27:15:56:88:e2:64:
                    f4:53:6a:68:71:da:20:a7:04:9f:99:1e:04:31:f5:
                    b4:2b:83:d3:db:bc:98:ca:79:e0:03:ab:be:dc:7d:
                    e3:64:b4:51:5a:f3:74:d8:39:e4:60:c3:dc:eb:f5:
                    af:8d:b9:48:c3:ad:63:d5:b9:04:a8:40:4d:1f:5f:
                    ce:b9
                Exponent: 65537 (0x10001)
        X509v3 extensions:
            X509v3 Basic Constraints: 
                CA:FALSE
            Netscape Comment: 
                OpenSSL Generated Certificate
            X509v3 Subject Key Identifier: 
                1E:8A:97:45:5E:2A:88:DD:FF:1A:6A:78:CC:0B:64:6D:09:0F:08:B0
            X509v3 Authority Key Identifier: 
                keyid:9D:F4:2F:4E:A8:A8:7F:11:16:FE:4B:E1:9E:5D:86:FC:73:38:E5:A7
                DirName:/C=IE/ST=Dublin/L=Dublin/O=memespace.net/OU=Axiomatic Secrets/CN=root.vpn.sh.s/emailAddress=sebastian_hagen@memespace.net
                serial:C3:39:A2:C7:E0:CD:31:1C

    Signature Algorithm: md5WithRSAEncryption
         03:ad:52:70:e7:65:c6:85:c3:80:63:11:44:f2:8d:1d:5b:81:
         91:33:32:60:7e:05:6d:f3:69:b1:c5:1c:de:cd:f4:f0:4a:00:
         36:64:93:fc:14:d6:b0:1a:77:c5:c3:42:ac:82:d7:14:d1:85:
         8b:90:0f:1d:73:ed:0b:4a:39:06:a8:56:54:37:80:83:d4:80:
         02:91:14:4c:9e:12:95:ea:72:b9:a0:86:4f:d0:b2:88:66:73:
         a0:9a:77:e3:8e:35:87:e1:3e:7f:3d:67:d9:22:3f:35:30:60:
         59:29:20:52:07:df:b8:1f:42:e5:d0:c8:db:9f:d5:2f:a7:ef:
         03:b6:52:06:a4:37:76:87:6d:cb:f5:e9:c7:c2:9c:1f:19:58:
         05:1a:b6:6c:83:a3:6e:6a:37:00:5a:85:a4:bd:d3:4e:75:4c:
         c2:92:ee:90:fb:c0:fd:38:76:fc:5e:f9:88:d7:1a:64:7a:63:
         a4:e1:e1:d2:1a:58:05:33:df:ec:fb:c2:f8:93:f7:5d:ad:0b:
         7f:6a:04:79:01:90:4c:c2:1b:77:9b:18:b1:ce:58:29:a0:02:
         89:9e:00:36:95:22:44:3a:be:cf:94:92:f8:90:03:5c:f1:15:
         08:9c:79:7e:e6:49:f3:b2:e8:82:25:01:41:62:6d:f3:38:69:
         d1:d8:1c:d9
-----BEGIN CERTIFICATE-----
MIIE8jCCA9qgAwIBAgIBBzANBgkqhkiG9w0BAQQFADCBqTELMAkGA1UEBhMCSUUx
DzANBgNVBAgTBkR1YmxpbjEPMA0GA1UEBxMGRHVibGluMRYwFAYDVQQKEw1tZW1l
c3BhY2UubmV0MRowGAYDVQQLExFBeGlvbWF0aWMgU2VjcmV0czEWMBQGA1UEAxMN
cm9vdC52cG4uc2guczEsMCoGCSqGSIb3DQEJARYdc2ViYXN0aWFuX2hhZ2VuQG1l
bWVzcGFjZS5uZXQwHhcNMTcwNDA3MDExMTExWhcNMjgwNjI0MDExMTExWjCBjTEL
MAkGA1UEBhMCVVMxCzAJBgNVBAgTAkNBMRYwFAYDVQQKEw1tZW1lc3BhY2UubmV0
MRIwEAYDVQQLEwlPY2VhbiBWUE4xFzAVBgNVBAMTDmlrYS52cG4tby5zaC5zMSww
KgYJKoZIhvcNAQkBFh1zZWJhc3RpYW5faGFnZW5AbWVtZXNwYWNlLm5ldDCCASIw
DQYJKoZIhvcNAQEBBQADggEPADCCAQoCggEBAMMi/pah/1uGYmc4RdTKPPzc+5ct
LKOjKUr8ctfk5/Rx3uCSsAuFUpY8gCsykzYGlC7c4bLWtTG9t/15Ts8jaML+0xwd
7QuJYKwDRmaOh8DonCsE1HLWbl1FDBX0Z8DcLS60TgFs7b56HbdVQ0uQkPmqfRX3
30Bsy41CLn4CB2pQyHDVyW6c1z3vmLP9Ewc7BiXL9HLnWqUMpH+gHSJr/UuGZ+cx
/pOO4cgPrlLuHnXEtdOOlPeXQ3I95AFQJxVWiOJk9FNqaHHaIKcEn5keBDH1tCuD
09u8mMp54AOrvtx942S0UVrzdNg55GDD3Ov1r425SMOtY9W5BKhATR9fzrkCAwEA
AaOCAT0wggE5MAkGA1UdEwQCMAAwLAYJYIZIAYb4QgENBB8WHU9wZW5TU0wgR2Vu
ZXJhdGVkIENlcnRpZmljYXRlMB0GA1UdDgQWBBQeipdFXiqI3f8aanjMC2RtCQ8I
sDCB3gYDVR0jBIHWMIHTgBSd9C9OqKh/ERb+S+GeXYb8czjlp6GBr6SBrDCBqTEL
MAkGA1UEBhMCSUUxDzANBgNVBAgTBkR1YmxpbjEPMA0GA1UEBxMGRHVibGluMRYw
FAYDVQQKEw1tZW1lc3BhY2UubmV0MRowGAYDVQQLExFBeGlvbWF0aWMgU2VjcmV0
czEWMBQGA1UEAxMNcm9vdC52cG4uc2guczEsMCoGCSqGSIb3DQEJARYdc2ViYXN0
aWFuX2hhZ2VuQG1lbWVzcGFjZS5uZXSCCQDDOaLH4M0xHDANBgkqhkiG9w0BAQQF
AAOCAQEAA61ScOdlxoXDgGMRRPKNHVuBkTMyYH4FbfNpscUc3s308EoANmST/BTW
sBp3xcNCrILXFNGFi5APHXPtC0o5BqhWVDeAg9SAApEUTJ4SlepyuaCGT9CyiGZz
oJp34441h+E+fz1n2SI/NTBgWSkgUgffuB9C5dDI25/VL6fvA7ZSBqQ3dodty/Xp
x8KcHxlYBRq2bIOjbmo3AFqFpL3TTnVMwpLukPvA/Th2/F75iNcaZHpjpOHh0hpY
BTPf7PvC+JP3Xa0Lf2oEeQGQTMIbd5sYsc5YKaACiZ4ANpUiRDq+z5SS+JADXPEV
CJx5fuZJ87LogiUBQWJt8zhp0dgc2Q==
-----END CERTIFICATE-----
